
_sod:     file format elf32-i386


Disassembly of section .text:

00000000 <main>:
#include "types.h"
#include "stat.h"
#include "user.h"

int main(int argc, char *argv[]){
   0:	8d 4c 24 04          	lea    0x4(%esp),%ecx
   4:	83 e4 f0             	and    $0xfffffff0,%esp
   7:	ff 71 fc             	push   -0x4(%ecx)

	if(argc != 2)
   a:	83 39 02             	cmpl   $0x2,(%ecx)
int main(int argc, char *argv[]){
   d:	55                   	push   %ebp
   e:	89 e5                	mov    %esp,%ebp
  10:	53                   	push   %ebx
  11:	51                   	push   %ecx
  12:	8b 41 04             	mov    0x4(%ecx),%eax
	if(argc != 2)
  15:	74 13                	je     2a <main+0x2a>
    {
	    printf(1, "Please enter only one argument\n");
  17:	50                   	push   %eax
  18:	50                   	push   %eax
  19:	68 88 07 00 00       	push   $0x788
  1e:	6a 01                	push   $0x1
  20:	e8 3b 04 00 00       	call   460 <printf>
		exit();
  25:	e8 89 02 00 00       	call   2b3 <exit>
	}


    int num = atoi(argv[1]);
  2a:	83 ec 0c             	sub    $0xc,%esp
  2d:	ff 70 04             	push   0x4(%eax)
  30:	e8 0b 02 00 00       	call   240 <atoi>
    int prev_value = 0;

    asm volatile(
  35:	89 db                	mov    %ebx,%ebx
  37:	89 c3                	mov    %eax,%ebx
        "movl %1, %%ebx;"
        : "=r" (prev_value)
        : "r"(num)
    );

    printf(1, "Sum = %d\n" , calculate_sum_of_digits());
  39:	e8 15 03 00 00       	call   353 <calculate_sum_of_digits>
  3e:	83 c4 0c             	add    $0xc,%esp
  41:	50                   	push   %eax
  42:	68 a8 07 00 00       	push   $0x7a8
  47:	6a 01                	push   $0x1
  49:	e8 12 04 00 00       	call   460 <printf>

    asm("movl %0, %%ebx" : : "r"(prev_value));
  4e:	89 db                	mov    %ebx,%ebx
    
    exit();  	
  50:	e8 5e 02 00 00       	call   2b3 <exit>
  55:	66 90                	xchg   %ax,%ax
  57:	66 90                	xchg   %ax,%ax
  59:	66 90                	xchg   %ax,%ax
  5b:	66 90                	xchg   %ax,%ax
  5d:	66 90                	xchg   %ax,%ax
  5f:	90                   	nop

00000060 <strcpy>:
  60:	55                   	push   %ebp
  61:	31 c0                	xor    %eax,%eax
  63:	89 e5                	mov    %esp,%ebp
  65:	53                   	push   %ebx
  66:	8b 4d 08             	mov    0x8(%ebp),%ecx
  69:	8b 5d 0c             	mov    0xc(%ebp),%ebx
  6c:	8d 74 26 00          	lea    0x0(%esi,%eiz,1),%esi
  70:	0f b6 14 03          	movzbl (%ebx,%eax,1),%edx
  74:	88 14 01             	mov    %dl,(%ecx,%eax,1)
  77:	83 c0 01             	add    $0x1,%eax
  7a:	84 d2                	test   %dl,%dl
  7c:	75 f2                	jne    70 <strcpy+0x10>
  7e:	8b 5d fc             	mov    -0x4(%ebp),%ebx
  81:	89 c8                	mov    %ecx,%eax
  83:	c9                   	leave  
  84:	c3                   	ret    
  85:	8d b4 26 00 00 00 00 	lea    0x0(%esi,%eiz,1),%esi
  8c:	8d 74 26 00          	lea    0x0(%esi,%eiz,1),%esi

00000090 <strcmp>:
  90:	55                   	push   %ebp
  91:	89 e5                	mov    %esp,%ebp
  93:	53                   	push   %ebx
  94:	8b 55 08             	mov    0x8(%ebp),%edx
  97:	8b 4d 0c             	mov    0xc(%ebp),%ecx
  9a:	0f b6 02             	movzbl (%edx),%eax
  9d:	84 c0                	test   %al,%al
  9f:	75 17                	jne    b8 <strcmp+0x28>
  a1:	eb 3a                	jmp    dd <strcmp+0x4d>
  a3:	8d 74 26 00          	lea    0x0(%esi,%eiz,1),%esi
  a7:	90                   	nop
  a8:	0f b6 42 01          	movzbl 0x1(%edx),%eax
  ac:	83 c2 01             	add    $0x1,%edx
  af:	8d 59 01             	lea    0x1(%ecx),%ebx
  b2:	84 c0                	test   %al,%al
  b4:	74 1a                	je     d0 <strcmp+0x40>
  b6:	89 d9                	mov    %ebx,%ecx
  b8:	0f b6 19             	movzbl (%ecx),%ebx
  bb:	38 c3                	cmp    %al,%bl
  bd:	74 e9                	je     a8 <strcmp+0x18>
  bf:	29 d8                	sub    %ebx,%eax
  c1:	8b 5d fc             	mov    -0x4(%ebp),%ebx
  c4:	c9                   	leave  
  c5:	c3                   	ret    
  c6:	8d b4 26 00 00 00 00 	lea    0x0(%esi,%eiz,1),%esi
  cd:	8d 76 00             	lea    0x0(%esi),%esi
  d0:	0f b6 59 01          	movzbl 0x1(%ecx),%ebx
  d4:	31 c0                	xor    %eax,%eax
  d6:	29 d8                	sub    %ebx,%eax
  d8:	8b 5d fc             	mov    -0x4(%ebp),%ebx
  db:	c9                   	leave  
  dc:	c3                   	ret    
  dd:	0f b6 19             	movzbl (%ecx),%ebx
  e0:	31 c0                	xor    %eax,%eax
  e2:	eb db                	jmp    bf <strcmp+0x2f>
  e4:	8d b4 26 00 00 00 00 	lea    0x0(%esi,%eiz,1),%esi
  eb:	8d 74 26 00          	lea    0x0(%esi,%eiz,1),%esi
  ef:	90                   	nop

000000f0 <strlen>:
  f0:	55                   	push   %ebp
  f1:	89 e5                	mov    %esp,%ebp
  f3:	8b 55 08             	mov    0x8(%ebp),%edx
  f6:	80 3a 00             	cmpb   $0x0,(%edx)
  f9:	74 15                	je     110 <strlen+0x20>
  fb:	31 c0                	xor    %eax,%eax
  fd:	8d 76 00             	lea    0x0(%esi),%esi
 100:	83 c0 01             	add    $0x1,%eax
 103:	80 3c 02 00          	cmpb   $0x0,(%edx,%eax,1)
 107:	89 c1                	mov    %eax,%ecx
 109:	75 f5                	jne    100 <strlen+0x10>
 10b:	89 c8                	mov    %ecx,%eax
 10d:	5d                   	pop    %ebp
 10e:	c3                   	ret    
 10f:	90                   	nop
 110:	31 c9                	xor    %ecx,%ecx
 112:	5d                   	pop    %ebp
 113:	89 c8                	mov    %ecx,%eax
 115:	c3                   	ret    
 116:	8d b4 26 00 00 00 00 	lea    0x0(%esi,%eiz,1),%esi
 11d:	8d 76 00             	lea    0x0(%esi),%esi

00000120 <memset>:
 120:	55                   	push   %ebp
 121:	89 e5                	mov    %esp,%ebp
 123:	57                   	push   %edi
 124:	8b 55 08             	mov    0x8(%ebp),%edx
 127:	8b 4d 10             	mov    0x10(%ebp),%ecx
 12a:	8b 45 0c             	mov    0xc(%ebp),%eax
 12d:	89 d7                	mov    %edx,%edi
 12f:	fc                   	cld    
 130:	f3 aa                	rep stos %al,%es:(%edi)
 132:	8b 7d fc             	mov    -0x4(%ebp),%edi
 135:	89 d0                	mov    %edx,%eax
 137:	c9                   	leave  
 138:	c3                   	ret    
 139:	8d b4 26 00 00 00 00 	lea    0x0(%esi,%eiz,1),%esi

00000140 <strchr>:
 140:	55                   	push   %ebp
 141:	89 e5                	mov    %esp,%ebp
 143:	8b 45 08             	mov    0x8(%ebp),%eax
 146:	0f b6 4d 0c          	movzbl 0xc(%ebp),%ecx
 14a:	0f b6 10             	movzbl (%eax),%edx
 14d:	84 d2                	test   %dl,%dl
 14f:	75 12                	jne    163 <strchr+0x23>
 151:	eb 1d                	jmp    170 <strchr+0x30>
 153:	8d 74 26 00          	lea    0x0(%esi,%eiz,1),%esi
 157:	90                   	nop
 158:	0f b6 50 01          	movzbl 0x1(%eax),%edx
 15c:	83 c0 01             	add    $0x1,%eax
 15f:	84 d2                	test   %dl,%dl
 161:	74 0d                	je     170 <strchr+0x30>
 163:	38 d1                	cmp    %dl,%cl
 165:	75 f1                	jne    158 <strchr+0x18>
 167:	5d                   	pop    %ebp
 168:	c3                   	ret    
 169:	8d b4 26 00 00 00 00 	lea    0x0(%esi,%eiz,1),%esi
 170:	31 c0                	xor    %eax,%eax
 172:	5d                   	pop    %ebp
 173:	c3                   	ret    
 174:	8d b4 26 00 00 00 00 	lea    0x0(%esi,%eiz,1),%esi
 17b:	8d 74 26 00          	lea    0x0(%esi,%eiz,1),%esi
 17f:	90                   	nop

00000180 <gets>:
 180:	55                   	push   %ebp
 181:	89 e5                	mov    %esp,%ebp
 183:	57                   	push   %edi
 184:	56                   	push   %esi
 185:	8d 7d e7             	lea    -0x19(%ebp),%edi
 188:	53                   	push   %ebx
 189:	31 db                	xor    %ebx,%ebx
 18b:	83 ec 1c             	sub    $0x1c,%esp
 18e:	eb 27                	jmp    1b7 <gets+0x37>
 190:	83 ec 04             	sub    $0x4,%esp
 193:	6a 01                	push   $0x1
 195:	57                   	push   %edi
 196:	6a 00                	push   $0x0
 198:	e8 2e 01 00 00       	call   2cb <read>
 19d:	83 c4 10             	add    $0x10,%esp
 1a0:	85 c0                	test   %eax,%eax
 1a2:	7e 1d                	jle    1c1 <gets+0x41>
 1a4:	0f b6 45 e7          	movzbl -0x19(%ebp),%eax
 1a8:	8b 55 08             	mov    0x8(%ebp),%edx
 1ab:	88 44 1a ff          	mov    %al,-0x1(%edx,%ebx,1)
 1af:	3c 0a                	cmp    $0xa,%al
 1b1:	74 1d                	je     1d0 <gets+0x50>
 1b3:	3c 0d                	cmp    $0xd,%al
 1b5:	74 19                	je     1d0 <gets+0x50>
 1b7:	89 de                	mov    %ebx,%esi
 1b9:	83 c3 01             	add    $0x1,%ebx
 1bc:	3b 5d 0c             	cmp    0xc(%ebp),%ebx
 1bf:	7c cf                	jl     190 <gets+0x10>
 1c1:	8b 45 08             	mov    0x8(%ebp),%eax
 1c4:	c6 04 30 00          	movb   $0x0,(%eax,%esi,1)
 1c8:	8d 65 f4             	lea    -0xc(%ebp),%esp
 1cb:	5b                   	pop    %ebx
 1cc:	5e                   	pop    %esi
 1cd:	5f                   	pop    %edi
 1ce:	5d                   	pop    %ebp
 1cf:	c3                   	ret    
 1d0:	8b 45 08             	mov    0x8(%ebp),%eax
 1d3:	89 de                	mov    %ebx,%esi
 1d5:	c6 04 30 00          	movb   $0x0,(%eax,%esi,1)
 1d9:	8d 65 f4             	lea    -0xc(%ebp),%esp
 1dc:	5b                   	pop    %ebx
 1dd:	5e                   	pop    %esi
 1de:	5f                   	pop    %edi
 1df:	5d                   	pop    %ebp
 1e0:	c3                   	ret    
 1e1:	8d b4 26 00 00 00 00 	lea    0x0(%esi,%eiz,1),%esi
 1e8:	8d b4 26 00 00 00 00 	lea    0x0(%esi,%eiz,1),%esi
 1ef:	90                   	nop

000001f0 <stat>:
 1f0:	55                   	push   %ebp
 1f1:	89 e5                	mov    %esp,%ebp
 1f3:	56                   	push   %esi
 1f4:	53                   	push   %ebx
 1f5:	83 ec 08             	sub    $0x8,%esp
 1f8:	6a 00                	push   $0x0
 1fa:	ff 75 08             	push   0x8(%ebp)
 1fd:	e8 f1 00 00 00       	call   2f3 <open>
 202:	83 c4 10             	add    $0x10,%esp
 205:	85 c0                	test   %eax,%eax
 207:	78 27                	js     230 <stat+0x40>
 209:	83 ec 08             	sub    $0x8,%esp
 20c:	ff 75 0c             	push   0xc(%ebp)
 20f:	89 c3                	mov    %eax,%ebx
 211:	50                   	push   %eax
 212:	e8 f4 00 00 00       	call   30b <fstat>
 217:	89 1c 24             	mov    %ebx,(%esp)
 21a:	89 c6                	mov    %eax,%esi
 21c:	e8 ba 00 00 00       	call   2db <close>
 221:	83 c4 10             	add    $0x10,%esp
 224:	8d 65 f8             	lea    -0x8(%ebp),%esp
 227:	89 f0                	mov    %esi,%eax
 229:	5b                   	pop    %ebx
 22a:	5e                   	pop    %esi
 22b:	5d                   	pop    %ebp
 22c:	c3                   	ret    
 22d:	8d 76 00             	lea    0x0(%esi),%esi
 230:	be ff ff ff ff       	mov    $0xffffffff,%esi
 235:	eb ed                	jmp    224 <stat+0x34>
 237:	8d b4 26 00 00 00 00 	lea    0x0(%esi,%eiz,1),%esi
 23e:	66 90                	xchg   %ax,%ax

00000240 <atoi>:
 240:	55                   	push   %ebp
 241:	89 e5                	mov    %esp,%ebp
 243:	53                   	push   %ebx
 244:	8b 55 08             	mov    0x8(%ebp),%edx
 247:	0f be 02             	movsbl (%edx),%eax
 24a:	8d 48 d0             	lea    -0x30(%eax),%ecx
 24d:	80 f9 09             	cmp    $0x9,%cl
 250:	b9 00 00 00 00       	mov    $0x0,%ecx
 255:	77 1e                	ja     275 <atoi+0x35>
 257:	8d b4 26 00 00 00 00 	lea    0x0(%esi,%eiz,1),%esi
 25e:	66 90                	xchg   %ax,%ax
 260:	83 c2 01             	add    $0x1,%edx
 263:	8d 0c 89             	lea    (%ecx,%ecx,4),%ecx
 266:	8d 4c 48 d0          	lea    -0x30(%eax,%ecx,2),%ecx
 26a:	0f be 02             	movsbl (%edx),%eax
 26d:	8d 58 d0             	lea    -0x30(%eax),%ebx
 270:	80 fb 09             	cmp    $0x9,%bl
 273:	76 eb                	jbe    260 <atoi+0x20>
 275:	8b 5d fc             	mov    -0x4(%ebp),%ebx
 278:	89 c8                	mov    %ecx,%eax
 27a:	c9                   	leave  
 27b:	c3                   	ret    
 27c:	8d 74 26 00          	lea    0x0(%esi,%eiz,1),%esi

00000280 <memmove>:
 280:	55                   	push   %ebp
 281:	89 e5                	mov    %esp,%ebp
 283:	57                   	push   %edi
 284:	8b 45 10             	mov    0x10(%ebp),%eax
 287:	8b 55 08             	mov    0x8(%ebp),%edx
 28a:	56                   	push   %esi
 28b:	8b 75 0c             	mov    0xc(%ebp),%esi
 28e:	85 c0                	test   %eax,%eax
 290:	7e 13                	jle    2a5 <memmove+0x25>
 292:	01 d0                	add    %edx,%eax
 294:	89 d7                	mov    %edx,%edi
 296:	8d b4 26 00 00 00 00 	lea    0x0(%esi,%eiz,1),%esi
 29d:	8d 76 00             	lea    0x0(%esi),%esi
 2a0:	a4                   	movsb  %ds:(%esi),%es:(%edi)
 2a1:	39 f8                	cmp    %edi,%eax
 2a3:	75 fb                	jne    2a0 <memmove+0x20>
 2a5:	5e                   	pop    %esi
 2a6:	89 d0                	mov    %edx,%eax
 2a8:	5f                   	pop    %edi
 2a9:	5d                   	pop    %ebp
 2aa:	c3                   	ret    

000002ab <fork>:
 2ab:	b8 01 00 00 00       	mov    $0x1,%eax
 2b0:	cd 40                	int    $0x40
 2b2:	c3                   	ret    

000002b3 <exit>:
 2b3:	b8 02 00 00 00       	mov    $0x2,%eax
 2b8:	cd 40                	int    $0x40
 2ba:	c3                   	ret    

000002bb <wait>:
 2bb:	b8 03 00 00 00       	mov    $0x3,%eax
 2c0:	cd 40                	int    $0x40
 2c2:	c3                   	ret    

000002c3 <pipe>:
 2c3:	b8 04 00 00 00       	mov    $0x4,%eax
 2c8:	cd 40                	int    $0x40
 2ca:	c3                   	ret    

000002cb <read>:
 2cb:	b8 05 00 00 00       	mov    $0x5,%eax
 2d0:	cd 40                	int    $0x40
 2d2:	c3                   	ret    

000002d3 <write>:
 2d3:	b8 10 00 00 00       	mov    $0x10,%eax
 2d8:	cd 40                	int    $0x40
 2da:	c3                   	ret    

000002db <close>:
 2db:	b8 15 00 00 00       	mov    $0x15,%eax
 2e0:	cd 40                	int    $0x40
 2e2:	c3                   	ret    

000002e3 <kill>:
 2e3:	b8 06 00 00 00       	mov    $0x6,%eax
 2e8:	cd 40                	int    $0x40
 2ea:	c3                   	ret    

000002eb <exec>:
 2eb:	b8 07 00 00 00       	mov    $0x7,%eax
 2f0:	cd 40                	int    $0x40
 2f2:	c3                   	ret    

000002f3 <open>:
 2f3:	b8 0f 00 00 00       	mov    $0xf,%eax
 2f8:	cd 40                	int    $0x40
 2fa:	c3                   	ret    

000002fb <mknod>:
 2fb:	b8 11 00 00 00       	mov    $0x11,%eax
 300:	cd 40                	int    $0x40
 302:	c3                   	ret    

00000303 <unlink>:
 303:	b8 12 00 00 00       	mov    $0x12,%eax
 308:	cd 40                	int    $0x40
 30a:	c3                   	ret    

0000030b <fstat>:
 30b:	b8 08 00 00 00       	mov    $0x8,%eax
 310:	cd 40                	int    $0x40
 312:	c3                   	ret    

00000313 <link>:
 313:	b8 13 00 00 00       	mov    $0x13,%eax
 318:	cd 40                	int    $0x40
 31a:	c3                   	ret    

0000031b <mkdir>:
 31b:	b8 14 00 00 00       	mov    $0x14,%eax
 320:	cd 40                	int    $0x40
 322:	c3                   	ret    

00000323 <chdir>:
 323:	b8 09 00 00 00       	mov    $0x9,%eax
 328:	cd 40                	int    $0x40
 32a:	c3                   	ret    

0000032b <dup>:
 32b:	b8 0a 00 00 00       	mov    $0xa,%eax
 330:	cd 40                	int    $0x40
 332:	c3                   	ret    

00000333 <getpid>:
 333:	b8 0b 00 00 00       	mov    $0xb,%eax
 338:	cd 40                	int    $0x40
 33a:	c3                   	ret    

0000033b <sbrk>:
 33b:	b8 0c 00 00 00       	mov    $0xc,%eax
 340:	cd 40                	int    $0x40
 342:	c3                   	ret    

00000343 <sleep>:
 343:	b8 0d 00 00 00       	mov    $0xd,%eax
 348:	cd 40                	int    $0x40
 34a:	c3                   	ret    

0000034b <uptime>:
 34b:	b8 0e 00 00 00       	mov    $0xe,%eax
 350:	cd 40                	int    $0x40
 352:	c3                   	ret    

00000353 <calculate_sum_of_digits>:
 353:	b8 16 00 00 00       	mov    $0x16,%eax
 358:	cd 40                	int    $0x40
 35a:	c3                   	ret    

0000035b <get_parent_pid>:
 35b:	b8 17 00 00 00       	mov    $0x17,%eax
 360:	cd 40                	int    $0x40
 362:	c3                   	ret    

00000363 <get_file_sectors>:
 363:	b8 18 00 00 00       	mov    $0x18,%eax
 368:	cd 40                	int    $0x40
 36a:	c3                   	ret    

0000036b <set_process_parent>:
 36b:	b8 19 00 00 00       	mov    $0x19,%eax
 370:	cd 40                	int    $0x40
 372:	c3                   	ret    

00000373 <change_process_queue>:
 373:	b8 1a 00 00 00       	mov    $0x1a,%eax
 378:	cd 40                	int    $0x40
 37a:	c3                   	ret    

0000037b <set_hrrn_priority>:
 37b:	b8 1b 00 00 00       	mov    $0x1b,%eax
 380:	cd 40                	int    $0x40
 382:	c3                   	ret    

00000383 <set_ptable_hrrn_priority>:
 383:	b8 1c 00 00 00       	mov    $0x1c,%eax
 388:	cd 40                	int    $0x40
 38a:	c3                   	ret    

0000038b <print_processes>:
 38b:	b8 1d 00 00 00       	mov    $0x1d,%eax
 390:	cd 40                	int    $0x40
 392:	c3                   	ret    

00000393 <sem_init>:
 393:	b8 1e 00 00 00       	mov    $0x1e,%eax
 398:	cd 40                	int    $0x40
 39a:	c3                   	ret    

0000039b <sem_acquire>:
 39b:	b8 1f 00 00 00       	mov    $0x1f,%eax
 3a0:	cd 40                	int    $0x40
 3a2:	c3                   	ret    

000003a3 <sem_release>:
 3a3:	b8 20 00 00 00       	mov    $0x20,%eax
 3a8:	cd 40                	int    $0x40
 3aa:	c3                   	ret    
 3ab:	66 90                	xchg   %ax,%ax
 3ad:	66 90                	xchg   %ax,%ax
 3af:	90                   	nop

000003b0 <printint>:
  write(fd, &c, 1);
}

static void
printint(int fd, int xx, int base, int sgn)
{
 3b0:	55                   	push   %ebp
 3b1:	89 e5                	mov    %esp,%ebp
 3b3:	57                   	push   %edi
 3b4:	56                   	push   %esi
 3b5:	53                   	push   %ebx
 3b6:	83 ec 3c             	sub    $0x3c,%esp
 3b9:	89 4d c4             	mov    %ecx,-0x3c(%ebp)
  uint x;

  neg = 0;
  if(sgn && xx < 0){
    neg = 1;
    x = -xx;
 3bc:	89 d1                	mov    %edx,%ecx
{
 3be:	89 45 b8             	mov    %eax,-0x48(%ebp)
  if(sgn && xx < 0){
 3c1:	85 d2                	test   %edx,%edx
 3c3:	0f 89 7f 00 00 00    	jns    448 <printint+0x98>
 3c9:	f6 45 08 01          	testb  $0x1,0x8(%ebp)
 3cd:	74 79                	je     448 <printint+0x98>
    neg = 1;
 3cf:	c7 45 bc 01 00 00 00 	movl   $0x1,-0x44(%ebp)
    x = -xx;
 3d6:	f7 d9                	neg    %ecx
  } else {
    x = xx;
  }

  i = 0;
 3d8:	31 db                	xor    %ebx,%ebx
 3da:	8d 75 d7             	lea    -0x29(%ebp),%esi
 3dd:	8d 76 00             	lea    0x0(%esi),%esi
  do{
    buf[i++] = digits[x % base];
 3e0:	89 c8                	mov    %ecx,%eax
 3e2:	31 d2                	xor    %edx,%edx
 3e4:	89 cf                	mov    %ecx,%edi
 3e6:	f7 75 c4             	divl   -0x3c(%ebp)
 3e9:	0f b6 92 14 08 00 00 	movzbl 0x814(%edx),%edx
 3f0:	89 45 c0             	mov    %eax,-0x40(%ebp)
 3f3:	89 d8                	mov    %ebx,%eax
 3f5:	8d 5b 01             	lea    0x1(%ebx),%ebx
  }while((x /= base) != 0);
 3f8:	8b 4d c0             	mov    -0x40(%ebp),%ecx
    buf[i++] = digits[x % base];
 3fb:	88 14 1e             	mov    %dl,(%esi,%ebx,1)
  }while((x /= base) != 0);
 3fe:	39 7d c4             	cmp    %edi,-0x3c(%ebp)
 401:	76 dd                	jbe    3e0 <printint+0x30>
  if(neg)
 403:	8b 4d bc             	mov    -0x44(%ebp),%ecx
 406:	85 c9                	test   %ecx,%ecx
 408:	74 0c                	je     416 <printint+0x66>
    buf[i++] = '-';
 40a:	c6 44 1d d8 2d       	movb   $0x2d,-0x28(%ebp,%ebx,1)
    buf[i++] = digits[x % base];
 40f:	89 d8                	mov    %ebx,%eax
    buf[i++] = '-';
 411:	ba 2d 00 00 00       	mov    $0x2d,%edx

  while(--i >= 0)
 416:	8b 7d b8             	mov    -0x48(%ebp),%edi
 419:	8d 5c 05 d7          	lea    -0x29(%ebp,%eax,1),%ebx
 41d:	eb 07                	jmp    426 <printint+0x76>
 41f:	90                   	nop
    putc(fd, buf[i]);
 420:	0f b6 13             	movzbl (%ebx),%edx
 423:	83 eb 01             	sub    $0x1,%ebx
  write(fd, &c, 1);
 426:	83 ec 04             	sub    $0x4,%esp
 429:	88 55 d7             	mov    %dl,-0x29(%ebp)
 42c:	6a 01                	push   $0x1
 42e:	56                   	push   %esi
 42f:	57                   	push   %edi
 430:	e8 9e fe ff ff       	call   2d3 <write>
  while(--i >= 0)
 435:	83 c4 10             	add    $0x10,%esp
 438:	39 de                	cmp    %ebx,%esi
 43a:	75 e4                	jne    420 <printint+0x70>
}
 43c:	8d 65 f4             	lea    -0xc(%ebp),%esp
 43f:	5b                   	pop    %ebx
 440:	5e                   	pop    %esi
 441:	5f                   	pop    %edi
 442:	5d                   	pop    %ebp
 443:	c3                   	ret    
 444:	8d 74 26 00          	lea    0x0(%esi,%eiz,1),%esi
  neg = 0;
 448:	c7 45 bc 00 00 00 00 	movl   $0x0,-0x44(%ebp)
 44f:	eb 87                	jmp    3d8 <printint+0x28>
 451:	8d b4 26 00 00 00 00 	lea    0x0(%esi,%eiz,1),%esi
 458:	8d b4 26 00 00 00 00 	lea    0x0(%esi,%eiz,1),%esi
 45f:	90                   	nop

00000460 <printf>:

// Print to the given fd. Only understands %d, %x, %p, %s.
void
printf(int fd, const char *fmt, ...)
{
 460:	55                   	push   %ebp
 461:	89 e5                	mov    %esp,%ebp
 463:	57                   	push   %edi
 464:	56                   	push   %esi
 465:	53                   	push   %ebx
 466:	83 ec 2c             	sub    $0x2c,%esp
  int c, i, state;
  uint *ap;

  state = 0;
  ap = (uint*)(void*)&fmt + 1;
  for(i = 0; fmt[i]; i++){
 469:	8b 5d 0c             	mov    0xc(%ebp),%ebx
{
 46c:	8b 75 08             	mov    0x8(%ebp),%esi
  for(i = 0; fmt[i]; i++){
 46f:	0f b6 13             	movzbl (%ebx),%edx
 472:	84 d2                	test   %dl,%dl
 474:	74 6a                	je     4e0 <printf+0x80>
  ap = (uint*)(void*)&fmt + 1;
 476:	8d 45 10             	lea    0x10(%ebp),%eax
 479:	83 c3 01             	add    $0x1,%ebx
  write(fd, &c, 1);
 47c:	8d 7d e7             	lea    -0x19(%ebp),%edi
  state = 0;
 47f:	31 c9                	xor    %ecx,%ecx
  ap = (uint*)(void*)&fmt + 1;
 481:	89 45 d0             	mov    %eax,-0x30(%ebp)
 484:	eb 36                	jmp    4bc <printf+0x5c>
 486:	8d b4 26 00 00 00 00 	lea    0x0(%esi,%eiz,1),%esi
 48d:	8d 76 00             	lea    0x0(%esi),%esi
 490:	89 4d d4             	mov    %ecx,-0x2c(%ebp)
    c = fmt[i] & 0xff;
    if(state == 0){
      if(c == '%'){
        state = '%';
 493:	b9 25 00 00 00       	mov    $0x25,%ecx
      if(c == '%'){
 498:	83 f8 25             	cmp    $0x25,%eax
 49b:	74 15                	je     4b2 <printf+0x52>
  write(fd, &c, 1);
 49d:	83 ec 04             	sub    $0x4,%esp
 4a0:	88 55 e7             	mov    %dl,-0x19(%ebp)
 4a3:	6a 01                	push   $0x1
 4a5:	57                   	push   %edi
 4a6:	56                   	push   %esi
 4a7:	e8 27 fe ff ff       	call   2d3 <write>
 4ac:	8b 4d d4             	mov    -0x2c(%ebp),%ecx
      } else {
        putc(fd, c);
 4af:	83 c4 10             	add    $0x10,%esp
  for(i = 0; fmt[i]; i++){
 4b2:	0f b6 13             	movzbl (%ebx),%edx
 4b5:	83 c3 01             	add    $0x1,%ebx
 4b8:	84 d2                	test   %dl,%dl
 4ba:	74 24                	je     4e0 <printf+0x80>
    c = fmt[i] & 0xff;
 4bc:	0f b6 c2             	movzbl %dl,%eax
    if(state == 0){
 4bf:	85 c9                	test   %ecx,%ecx
 4c1:	74 cd                	je     490 <printf+0x30>
      }
    } else if(state == '%'){
 4c3:	83 f9 25             	cmp    $0x25,%ecx
 4c6:	75 ea                	jne    4b2 <printf+0x52>
      if(c == 'd'){
 4c8:	83 f8 25             	cmp    $0x25,%eax
 4cb:	0f 84 07 01 00 00    	je     5d8 <printf+0x178>
 4d1:	83 e8 63             	sub    $0x63,%eax
 4d4:	83 f8 15             	cmp    $0x15,%eax
 4d7:	77 17                	ja     4f0 <printf+0x90>
 4d9:	ff 24 85 bc 07 00 00 	jmp    *0x7bc(,%eax,4)
        putc(fd, c);
      }
      state = 0;
    }
  }
}
 4e0:	8d 65 f4             	lea    -0xc(%ebp),%esp
 4e3:	5b                   	pop    %ebx
 4e4:	5e                   	pop    %esi
 4e5:	5f                   	pop    %edi
 4e6:	5d                   	pop    %ebp
 4e7:	c3                   	ret    
 4e8:	8d b4 26 00 00 00 00 	lea    0x0(%esi,%eiz,1),%esi
 4ef:	90                   	nop
  write(fd, &c, 1);
 4f0:	83 ec 04             	sub    $0x4,%esp
 4f3:	88 55 d4             	mov    %dl,-0x2c(%ebp)
 4f6:	6a 01                	push   $0x1
 4f8:	57                   	push   %edi
 4f9:	56                   	push   %esi
 4fa:	c6 45 e7 25          	movb   $0x25,-0x19(%ebp)
 4fe:	e8 d0 fd ff ff       	call   2d3 <write>
        putc(fd, c);
 503:	0f b6 55 d4          	movzbl -0x2c(%ebp),%edx
  write(fd, &c, 1);
 507:	83 c4 0c             	add    $0xc,%esp
 50a:	88 55 e7             	mov    %dl,-0x19(%ebp)
 50d:	6a 01                	push   $0x1
 50f:	57                   	push   %edi
 510:	56                   	push   %esi
 511:	e8 bd fd ff ff       	call   2d3 <write>
        putc(fd, c);
 516:	83 c4 10             	add    $0x10,%esp
      state = 0;
 519:	31 c9                	xor    %ecx,%ecx
 51b:	eb 95                	jmp    4b2 <printf+0x52>
 51d:	8d 76 00             	lea    0x0(%esi),%esi
        printint(fd, *ap, 16, 0);
 520:	83 ec 0c             	sub    $0xc,%esp
 523:	b9 10 00 00 00       	mov    $0x10,%ecx
 528:	6a 00                	push   $0x0
 52a:	8b 45 d0             	mov    -0x30(%ebp),%eax
 52d:	8b 10                	mov    (%eax),%edx
 52f:	89 f0                	mov    %esi,%eax
 531:	e8 7a fe ff ff       	call   3b0 <printint>
        ap++;
 536:	83 45 d0 04          	addl   $0x4,-0x30(%ebp)
 53a:	83 c4 10             	add    $0x10,%esp
      state = 0;
 53d:	31 c9                	xor    %ecx,%ecx
 53f:	e9 6e ff ff ff       	jmp    4b2 <printf+0x52>
 544:	8d 74 26 00          	lea    0x0(%esi,%eiz,1),%esi
        s = (char*)*ap;
 548:	8b 45 d0             	mov    -0x30(%ebp),%eax
 54b:	8b 10                	mov    (%eax),%edx
        ap++;
 54d:	83 c0 04             	add    $0x4,%eax
 550:	89 45 d0             	mov    %eax,-0x30(%ebp)
        if(s == 0)
 553:	85 d2                	test   %edx,%edx
 555:	0f 84 8d 00 00 00    	je     5e8 <printf+0x188>
        while(*s != 0){
 55b:	0f b6 02             	movzbl (%edx),%eax
      state = 0;
 55e:	31 c9                	xor    %ecx,%ecx
        while(*s != 0){
 560:	84 c0                	test   %al,%al
 562:	0f 84 4a ff ff ff    	je     4b2 <printf+0x52>
 568:	89 5d d4             	mov    %ebx,-0x2c(%ebp)
 56b:	89 d3                	mov    %edx,%ebx
 56d:	8d 76 00             	lea    0x0(%esi),%esi
  write(fd, &c, 1);
 570:	83 ec 04             	sub    $0x4,%esp
          s++;
 573:	83 c3 01             	add    $0x1,%ebx
 576:	88 45 e7             	mov    %al,-0x19(%ebp)
  write(fd, &c, 1);
 579:	6a 01                	push   $0x1
 57b:	57                   	push   %edi
 57c:	56                   	push   %esi
 57d:	e8 51 fd ff ff       	call   2d3 <write>
        while(*s != 0){
 582:	0f b6 03             	movzbl (%ebx),%eax
 585:	83 c4 10             	add    $0x10,%esp
 588:	84 c0                	test   %al,%al
 58a:	75 e4                	jne    570 <printf+0x110>
      state = 0;
 58c:	8b 5d d4             	mov    -0x2c(%ebp),%ebx
 58f:	31 c9                	xor    %ecx,%ecx
 591:	e9 1c ff ff ff       	jmp    4b2 <printf+0x52>
 596:	8d b4 26 00 00 00 00 	lea    0x0(%esi,%eiz,1),%esi
 59d:	8d 76 00             	lea    0x0(%esi),%esi
        printint(fd, *ap, 10, 1);
 5a0:	83 ec 0c             	sub    $0xc,%esp
 5a3:	b9 0a 00 00 00       	mov    $0xa,%ecx
 5a8:	6a 01                	push   $0x1
 5aa:	e9 7b ff ff ff       	jmp    52a <printf+0xca>
 5af:	90                   	nop
        putc(fd, *ap);
 5b0:	8b 45 d0             	mov    -0x30(%ebp),%eax
  write(fd, &c, 1);
 5b3:	83 ec 04             	sub    $0x4,%esp
        putc(fd, *ap);
 5b6:	8b 00                	mov    (%eax),%eax
  write(fd, &c, 1);
 5b8:	6a 01                	push   $0x1
 5ba:	57                   	push   %edi
 5bb:	56                   	push   %esi
        putc(fd, *ap);
 5bc:	88 45 e7             	mov    %al,-0x19(%ebp)
  write(fd, &c, 1);
 5bf:	e8 0f fd ff ff       	call   2d3 <write>
        ap++;
 5c4:	83 45 d0 04          	addl   $0x4,-0x30(%ebp)
 5c8:	83 c4 10             	add    $0x10,%esp
      state = 0;
 5cb:	31 c9                	xor    %ecx,%ecx
 5cd:	e9 e0 fe ff ff       	jmp    4b2 <printf+0x52>
 5d2:	8d b6 00 00 00 00    	lea    0x0(%esi),%esi
        putc(fd, c);
 5d8:	88 55 e7             	mov    %dl,-0x19(%ebp)
  write(fd, &c, 1);
 5db:	83 ec 04             	sub    $0x4,%esp
 5de:	e9 2a ff ff ff       	jmp    50d <printf+0xad>
 5e3:	8d 74 26 00          	lea    0x0(%esi,%eiz,1),%esi
 5e7:	90                   	nop
          s = "(null)";
 5e8:	ba b2 07 00 00       	mov    $0x7b2,%edx
        while(*s != 0){
 5ed:	89 5d d4             	mov    %ebx,-0x2c(%ebp)
 5f0:	b8 28 00 00 00       	mov    $0x28,%eax
 5f5:	89 d3                	mov    %edx,%ebx
 5f7:	e9 74 ff ff ff       	jmp    570 <printf+0x110>
 5fc:	66 90                	xchg   %ax,%ax
 5fe:	66 90                	xchg   %ax,%ax

00000600 <free>:
 600:	55                   	push   %ebp
 601:	a1 c0 0a 00 00       	mov    0xac0,%eax
 606:	89 e5                	mov    %esp,%ebp
 608:	57                   	push   %edi
 609:	56                   	push   %esi
 60a:	53                   	push   %ebx
 60b:	8b 5d 08             	mov    0x8(%ebp),%ebx
 60e:	8d 4b f8             	lea    -0x8(%ebx),%ecx
 611:	8d b4 26 00 00 00 00 	lea    0x0(%esi,%eiz,1),%esi
 618:	89 c2                	mov    %eax,%edx
 61a:	8b 00                	mov    (%eax),%eax
 61c:	39 ca                	cmp    %ecx,%edx
 61e:	73 30                	jae    650 <free+0x50>
 620:	39 c1                	cmp    %eax,%ecx
 622:	72 04                	jb     628 <free+0x28>
 624:	39 c2                	cmp    %eax,%edx
 626:	72 f0                	jb     618 <free+0x18>
 628:	8b 73 fc             	mov    -0x4(%ebx),%esi
 62b:	8d 3c f1             	lea    (%ecx,%esi,8),%edi
 62e:	39 f8                	cmp    %edi,%eax
 630:	74 30                	je     662 <free+0x62>
 632:	89 43 f8             	mov    %eax,-0x8(%ebx)
 635:	8b 42 04             	mov    0x4(%edx),%eax
 638:	8d 34 c2             	lea    (%edx,%eax,8),%esi
 63b:	39 f1                	cmp    %esi,%ecx
 63d:	74 3a                	je     679 <free+0x79>
 63f:	89 0a                	mov    %ecx,(%edx)
 641:	5b                   	pop    %ebx
 642:	89 15 c0 0a 00 00    	mov    %edx,0xac0
 648:	5e                   	pop    %esi
 649:	5f                   	pop    %edi
 64a:	5d                   	pop    %ebp
 64b:	c3                   	ret    
 64c:	8d 74 26 00          	lea    0x0(%esi,%eiz,1),%esi
 650:	39 c2                	cmp    %eax,%edx
 652:	72 c4                	jb     618 <free+0x18>
 654:	39 c1                	cmp    %eax,%ecx
 656:	73 c0                	jae    618 <free+0x18>
 658:	8b 73 fc             	mov    -0x4(%ebx),%esi
 65b:	8d 3c f1             	lea    (%ecx,%esi,8),%edi
 65e:	39 f8                	cmp    %edi,%eax
 660:	75 d0                	jne    632 <free+0x32>
 662:	03 70 04             	add    0x4(%eax),%esi
 665:	89 73 fc             	mov    %esi,-0x4(%ebx)
 668:	8b 02                	mov    (%edx),%eax
 66a:	8b 00                	mov    (%eax),%eax
 66c:	89 43 f8             	mov    %eax,-0x8(%ebx)
 66f:	8b 42 04             	mov    0x4(%edx),%eax
 672:	8d 34 c2             	lea    (%edx,%eax,8),%esi
 675:	39 f1                	cmp    %esi,%ecx
 677:	75 c6                	jne    63f <free+0x3f>
 679:	03 43 fc             	add    -0x4(%ebx),%eax
 67c:	89 15 c0 0a 00 00    	mov    %edx,0xac0
 682:	89 42 04             	mov    %eax,0x4(%edx)
 685:	8b 4b f8             	mov    -0x8(%ebx),%ecx
 688:	89 0a                	mov    %ecx,(%edx)
 68a:	5b                   	pop    %ebx
 68b:	5e                   	pop    %esi
 68c:	5f                   	pop    %edi
 68d:	5d                   	pop    %ebp
 68e:	c3                   	ret    
 68f:	90                   	nop

00000690 <malloc>:
 690:	55                   	push   %ebp
 691:	89 e5                	mov    %esp,%ebp
 693:	57                   	push   %edi
 694:	56                   	push   %esi
 695:	53                   	push   %ebx
 696:	83 ec 1c             	sub    $0x1c,%esp
 699:	8b 45 08             	mov    0x8(%ebp),%eax
 69c:	8b 3d c0 0a 00 00    	mov    0xac0,%edi
 6a2:	8d 70 07             	lea    0x7(%eax),%esi
 6a5:	c1 ee 03             	shr    $0x3,%esi
 6a8:	83 c6 01             	add    $0x1,%esi
 6ab:	85 ff                	test   %edi,%edi
 6ad:	0f 84 9d 00 00 00    	je     750 <malloc+0xc0>
 6b3:	8b 17                	mov    (%edi),%edx
 6b5:	8b 4a 04             	mov    0x4(%edx),%ecx
 6b8:	39 f1                	cmp    %esi,%ecx
 6ba:	73 6a                	jae    726 <malloc+0x96>
 6bc:	bb 00 10 00 00       	mov    $0x1000,%ebx
 6c1:	39 de                	cmp    %ebx,%esi
 6c3:	0f 43 de             	cmovae %esi,%ebx
 6c6:	8d 04 dd 00 00 00 00 	lea    0x0(,%ebx,8),%eax
 6cd:	89 45 e4             	mov    %eax,-0x1c(%ebp)
 6d0:	eb 17                	jmp    6e9 <malloc+0x59>
 6d2:	8d b6 00 00 00 00    	lea    0x0(%esi),%esi
 6d8:	8b 02                	mov    (%edx),%eax
 6da:	8b 48 04             	mov    0x4(%eax),%ecx
 6dd:	39 f1                	cmp    %esi,%ecx
 6df:	73 4f                	jae    730 <malloc+0xa0>
 6e1:	8b 3d c0 0a 00 00    	mov    0xac0,%edi
 6e7:	89 c2                	mov    %eax,%edx
 6e9:	39 d7                	cmp    %edx,%edi
 6eb:	75 eb                	jne    6d8 <malloc+0x48>
 6ed:	83 ec 0c             	sub    $0xc,%esp
 6f0:	ff 75 e4             	push   -0x1c(%ebp)
 6f3:	e8 43 fc ff ff       	call   33b <sbrk>
 6f8:	83 c4 10             	add    $0x10,%esp
 6fb:	83 f8 ff             	cmp    $0xffffffff,%eax
 6fe:	74 1c                	je     71c <malloc+0x8c>
 700:	89 58 04             	mov    %ebx,0x4(%eax)
 703:	83 ec 0c             	sub    $0xc,%esp
 706:	83 c0 08             	add    $0x8,%eax
 709:	50                   	push   %eax
 70a:	e8 f1 fe ff ff       	call   600 <free>
 70f:	8b 15 c0 0a 00 00    	mov    0xac0,%edx
 715:	83 c4 10             	add    $0x10,%esp
 718:	85 d2                	test   %edx,%edx
 71a:	75 bc                	jne    6d8 <malloc+0x48>
 71c:	8d 65 f4             	lea    -0xc(%ebp),%esp
 71f:	31 c0                	xor    %eax,%eax
 721:	5b                   	pop    %ebx
 722:	5e                   	pop    %esi
 723:	5f                   	pop    %edi
 724:	5d                   	pop    %ebp
 725:	c3                   	ret    
 726:	89 d0                	mov    %edx,%eax
 728:	89 fa                	mov    %edi,%edx
 72a:	8d b6 00 00 00 00    	lea    0x0(%esi),%esi
 730:	39 ce                	cmp    %ecx,%esi
 732:	74 4c                	je     780 <malloc+0xf0>
 734:	29 f1                	sub    %esi,%ecx
 736:	89 48 04             	mov    %ecx,0x4(%eax)
 739:	8d 04 c8             	lea    (%eax,%ecx,8),%eax
 73c:	89 70 04             	mov    %esi,0x4(%eax)
 73f:	89 15 c0 0a 00 00    	mov    %edx,0xac0
 745:	8d 65 f4             	lea    -0xc(%ebp),%esp
 748:	83 c0 08             	add    $0x8,%eax
 74b:	5b                   	pop    %ebx
 74c:	5e                   	pop    %esi
 74d:	5f                   	pop    %edi
 74e:	5d                   	pop    %ebp
 74f:	c3                   	ret    
 750:	c7 05 c0 0a 00 00 c4 	movl   $0xac4,0xac0
 757:	0a 00 00 
 75a:	bf c4 0a 00 00       	mov    $0xac4,%edi
 75f:	c7 05 c4 0a 00 00 c4 	movl   $0xac4,0xac4
 766:	0a 00 00 
 769:	89 fa                	mov    %edi,%edx
 76b:	c7 05 c8 0a 00 00 00 	movl   $0x0,0xac8
 772:	00 00 00 
 775:	e9 42 ff ff ff       	jmp    6bc <malloc+0x2c>
 77a:	8d b6 00 00 00 00    	lea    0x0(%esi),%esi
 780:	8b 08                	mov    (%eax),%ecx
 782:	89 0a                	mov    %ecx,(%edx)
 784:	eb b9                	jmp    73f <malloc+0xaf>
